; Function Attrs: mustprogress nounwind uwtable
define internal fastcc void @_ZNSt10unique_ptrIN17grpc_event_engine12experimental12_GLOBAL__N_18QueryArgESt14default_deleteIS3_EED2Ev(ptr noundef nonnull align 8 captures(none) dereferenceable(8) %0) unnamed_addr #11 align 2 personality ptr @__gxx_personality_v0 {
  %2 = load ptr, ptr %0, align 8, !tbaa !265
  %.not = icmp eq ptr %2, null
  br i1 %.not, label %13, label %3

3:                                                ; preds = %1
  %4 = getelementptr inbounds nuw i8, ptr %2, i64 16
  %5 = load ptr, ptr %4, align 8, !tbaa !11
  %6 = getelementptr inbounds nuw i8, ptr %2, i64 32
  %7 = icmp eq ptr %5, %6
  br i1 %7, label %_ZNKSt7__cxx1112basic_stringIcSt11char_traitsIcESaIcEE11_M_is_localEv.exit.thread.i.i.i.i, label %_ZNKSt7__cxx1112basic_stringIcSt11char_traitsIcESaIcEE11_M_is_localEv.exit.i.i.i.i

_ZNKSt7__cxx1112basic_stringIcSt11char_traitsIcESaIcEE11_M_is_localEv.exit.thread.i.i.i.i: ; preds = %3
  %8 = getelementptr inbounds nuw i8, ptr %2, i64 24
  %9 = load i64, ptr %8, align 8, !tbaa !17
  %10 = icmp ult i64 %9, 16
  tail call void @llvm.assume(i1 %10)
  br label %_ZNKSt14default_deleteIN17grpc_event_engine12experimental12_GLOBAL__N_18QueryArgEEclEPS3_.exit

_ZNKSt7__cxx1112basic_stringIcSt11char_traitsIcESaIcEE11_M_is_localEv.exit.i.i.i.i: ; preds = %3
  %11 = load i64, ptr %6, align 8, !tbaa !21
  %12 = add i64 %11, 1
  tail call void @_ZdlPvm(ptr noundef %5, i64 noundef %12) #38
  br label %_ZNKSt14default_deleteIN17grpc_event_engine12experimental12_GLOBAL__N_18QueryArgEEclEPS3_.exit

_ZNKSt14default_deleteIN17grpc_event_engine12experimental12_GLOBAL__N_18QueryArgEEclEPS3_.exit: ; preds = %_ZNKSt7__cxx1112basic_stringIcSt11char_traitsIcESaIcEE11_M_is_localEv.exit.thread.i.i.i.i, %_ZNKSt7__cxx1112basic_stringIcSt11char_traitsIcESaIcEE11_M_is_localEv.exit.i.i.i.i
  tail call void @_ZdlPvm(ptr noundef nonnull %2, i64 noundef 48) #38
  br label %13

13:                                               ; preds = %_ZNKSt14default_deleteIN17grpc_event_engine12experimental12_GLOBAL__N_18QueryArgEEclEPS3_.exit, %1
  store ptr null, ptr %0, align 8, !tbaa !265
  ret void
}